; Function Attrs: mustprogress uwtable
define void @_ZN5arrow14BooleanBuilder12AppendValuesERKSt6vectorIhSaIhEERKS1_IbSaIbEE(ptr noalias nocapture writeonly sret(%"class.arrow::Status") align 8 %agg.result, ptr noundef nonnull align 8 dereferenceable(216) %this, ptr nocapture noundef nonnull readonly align 8 dereferenceable(24) %values, ptr noundef nonnull align 8 dereferenceable(40) %is_valid) local_unnamed_addr #0 align 2 {
entry:
  %0 = load ptr, ptr %values, align 8
  %_M_finish.i = getelementptr inbounds i8, ptr %values, i64 8
  %1 = load ptr, ptr %_M_finish.i, align 8
  %sub.ptr.lhs.cast.i = ptrtoint ptr %1 to i64
  %sub.ptr.rhs.cast.i = ptrtoint ptr %0 to i64
  %sub.ptr.sub.i = sub i64 %sub.ptr.lhs.cast.i, %sub.ptr.rhs.cast.i
  tail call void @_ZN5arrow14BooleanBuilder12AppendValuesEPKhlRKSt6vectorIbSaIbEE(ptr sret(%"class.arrow::Status") align 8 %agg.result, ptr noundef nonnull align 8 dereferenceable(216) %this, ptr noundef %0, i64 noundef %sub.ptr.sub.i, ptr noundef nonnull align 8 dereferenceable(40) %is_valid)
  ret void
}